target datalayout = "e-m:e-p270:32:32-p271:32:32-p272:64:64-i64:64-i128:128-f80:128-n8:16:32:64-S128"
target triple = "x86_64-pc-linux-gnu"

; Function Attrs: mustprogress uwtable
define dso_local noundef ptr @_Z14luaL_findtableP9lua_StateiPKci(ptr noundef %0, i32 noundef %1, ptr noundef %2, i32 noundef %3) #3 {
  %5 = alloca ptr, align 8
  %6 = alloca ptr, align 8
  %7 = alloca i32, align 4
  %8 = alloca ptr, align 8
  %9 = alloca i32, align 4
  %10 = alloca ptr, align 8
  store ptr %0, ptr %6, align 8
  store i32 %1, ptr %7, align 4
  store ptr %2, ptr %8, align 8
  store i32 %3, ptr %9, align 4
  %11 = load ptr, ptr %6, align 8
  %12 = load i32, ptr %7, align 4
  call void @_Z13lua_pushvalueP9lua_Statei(ptr noundef %11, i32 noundef %12)
  br label %13

13:                                               ; preds = %69, %4
  %14 = load ptr, ptr %8, align 8
  %15 = call noundef ptr @strchr(ptr noundef %14, i32 noundef 46) #9
  store ptr %15, ptr %10, align 8
  %16 = load ptr, ptr %10, align 8
  %17 = icmp eq ptr %16, null
  br i1 %17, label %18, label %23

18:                                               ; preds = %13
  %19 = load ptr, ptr %8, align 8
  %20 = load ptr, ptr %8, align 8
  %21 = call i64 @strlen(ptr noundef %20) #9
  %22 = getelementptr inbounds i8, ptr %19, i64 %21
  store ptr %22, ptr %10, align 8
  br label %23

23:                                               ; preds = %18, %13
  %24 = load ptr, ptr %6, align 8
  %25 = load ptr, ptr %8, align 8
  %26 = load ptr, ptr %10, align 8
  %27 = load ptr, ptr %8, align 8
  %28 = ptrtoint ptr %26 to i64
  %29 = ptrtoint ptr %27 to i64
  %30 = sub i64 %28, %29
  call void @_Z15lua_pushlstringP9lua_StatePKcm(ptr noundef %24, ptr noundef %25, i64 noundef %30)
  %31 = load ptr, ptr %6, align 8
  %32 = call noundef i32 @_Z10lua_rawgetP9lua_Statei(ptr noundef %31, i32 noundef -2)
  %33 = load ptr, ptr %6, align 8
  %34 = call noundef i32 @_Z8lua_typeP9lua_Statei(ptr noundef %33, i32 noundef -1)
  %35 = icmp eq i32 %34, 0
  br i1 %35, label %36, label %57

36:                                               ; preds = %23
  %37 = load ptr, ptr %6, align 8
  call void @_Z10lua_settopP9lua_Statei(ptr noundef %37, i32 noundef -2)
  %38 = load ptr, ptr %6, align 8
  %39 = load ptr, ptr %10, align 8
  %40 = load i8, ptr %39, align 1
  %41 = sext i8 %40 to i32
  %42 = icmp eq i32 %41, 46
  br i1 %42, label %43, label %44

43:                                               ; preds = %36
  br label %46

44:                                               ; preds = %36
  %45 = load i32, ptr %9, align 4
  br label %46

46:                                               ; preds = %44, %43
  %47 = phi i32 [ 1, %43 ], [ %45, %44 ]
  call void @_Z15lua_createtableP9lua_Stateii(ptr noundef %38, i32 noundef 0, i32 noundef %47)
  %48 = load ptr, ptr %6, align 8
  %49 = load ptr, ptr %8, align 8
  %50 = load ptr, ptr %10, align 8
  %51 = load ptr, ptr %8, align 8
  %52 = ptrtoint ptr %50 to i64
  %53 = ptrtoint ptr %51 to i64
  %54 = sub i64 %52, %53
  call void @_Z15lua_pushlstringP9lua_StatePKcm(ptr noundef %48, ptr noundef %49, i64 noundef %54)
  %55 = load ptr, ptr %6, align 8
  call void @_Z13lua_pushvalueP9lua_Statei(ptr noundef %55, i32 noundef -2)
  %56 = load ptr, ptr %6, align 8
  call void @_Z12lua_settableP9lua_Statei(ptr noundef %56, i32 noundef -4)
  br label %65

57:                                               ; preds = %23
  %58 = load ptr, ptr %6, align 8
  %59 = call noundef i32 @_Z8lua_typeP9lua_Statei(ptr noundef %58, i32 noundef -1)
  %60 = icmp eq i32 %59, 6
  br i1 %60, label %64, label %61

61:                                               ; preds = %57
  %62 = load ptr, ptr %6, align 8
  call void @_Z10lua_settopP9lua_Statei(ptr noundef %62, i32 noundef -3)
  %63 = load ptr, ptr %8, align 8
  store ptr %63, ptr %5, align 8
  br label %75

64:                                               ; preds = %57
  br label %65

65:                                               ; preds = %64, %46
  %66 = load ptr, ptr %6, align 8
  call void @_Z10lua_removeP9lua_Statei(ptr noundef %66, i32 noundef -2)
  %67 = load ptr, ptr %10, align 8
  %68 = getelementptr inbounds i8, ptr %67, i64 1
  store ptr %68, ptr %8, align 8
  br label %69

69:                                               ; preds = %65
  %70 = load ptr, ptr %10, align 8
  %71 = load i8, ptr %70, align 1
  %72 = sext i8 %71 to i32
  %73 = icmp eq i32 %72, 46
  br i1 %73, label %13, label %74, !llvm.loop !9

74:                                               ; preds = %69
  store ptr null, ptr %5, align 8
  br label %75

75:                                               ; preds = %74, %61
  %76 = load ptr, ptr %5, align 8
  ret ptr %76
}