; Function Attrs: mustprogress uwtable
define dso_local noundef ptr @_Z14luaL_findtableP9lua_StateiPKci(ptr noundef %0, i32 noundef %1, ptr noundef %2, i32 noundef %3) local_unnamed_addr #2 {
  tail call void @_Z13lua_pushvalueP9lua_Statei(ptr noundef %0, i32 noundef %1)
  br label %5

5:                                                ; preds = %26, %4
  %.029 = phi ptr [ %2, %4 ], [ %27, %26 ]
  %6 = tail call noundef ptr @strchr(ptr noundef nonnull dereferenceable(1) %.029, i32 noundef 46) #10
  %7 = icmp eq ptr %6, null
  br i1 %7, label %8, label %11

8:                                                ; preds = %5
  %9 = tail call i64 @strlen(ptr noundef nonnull dereferenceable(1) %.029) #10
  %10 = getelementptr inbounds i8, ptr %.029, i64 %9
  br label %11

11:                                               ; preds = %8, %5
  %.0 = phi ptr [ %10, %8 ], [ %6, %5 ]
  %12 = ptrtoint ptr %.0 to i64
  %13 = ptrtoint ptr %.029 to i64
  %14 = sub i64 %12, %13
  tail call void @_Z15lua_pushlstringP9lua_StatePKcm(ptr noundef %0, ptr noundef %.029, i64 noundef %14)
  %15 = tail call noundef i32 @_Z10lua_rawgetP9lua_Statei(ptr noundef %0, i32 noundef -2)
  %16 = tail call noundef i32 @_Z8lua_typeP9lua_Statei(ptr noundef %0, i32 noundef -1)
  %17 = icmp eq i32 %16, 0
  br i1 %17, label %18, label %22

18:                                               ; preds = %11
  tail call void @_Z10lua_settopP9lua_Statei(ptr noundef %0, i32 noundef -2)
  %19 = load i8, ptr %.0, align 1
  %20 = icmp eq i8 %19, 46
  %21 = select i1 %20, i32 1, i32 %3
  tail call void @_Z15lua_createtableP9lua_Stateii(ptr noundef %0, i32 noundef 0, i32 noundef %21)
  tail call void @_Z15lua_pushlstringP9lua_StatePKcm(ptr noundef %0, ptr noundef %.029, i64 noundef %14)
  tail call void @_Z13lua_pushvalueP9lua_Statei(ptr noundef %0, i32 noundef -2)
  tail call void @_Z12lua_settableP9lua_Statei(ptr noundef %0, i32 noundef -4)
  br label %26

22:                                               ; preds = %11
  %23 = tail call noundef i32 @_Z8lua_typeP9lua_Statei(ptr noundef %0, i32 noundef -1)
  %24 = icmp eq i32 %23, 6
  br i1 %24, label %26, label %25

25:                                               ; preds = %22
  tail call void @_Z10lua_settopP9lua_Statei(ptr noundef %0, i32 noundef -3)
  br label %.loopexit

26:                                               ; preds = %22, %18
  tail call void @_Z10lua_removeP9lua_Statei(ptr noundef %0, i32 noundef -2)
  %27 = getelementptr inbounds i8, ptr %.0, i64 1
  %28 = load i8, ptr %.0, align 1
  %29 = icmp eq i8 %28, 46
  br i1 %29, label %5, label %.loopexit, !llvm.loop !9

.loopexit:                                        ; preds = %26, %25
  %.028 = phi ptr [ %.029, %25 ], [ null, %26 ]
  ret ptr %.028
}